target datalayout = "e-m:e-p270:32:32-p271:32:32-p272:64:64-i64:64-i128:128-f80:128-n8:16:32:64-S128"
target triple = "x86_64-pc-linux-gnu"

%struct.blst_fp = type { [6 x i64] }
%struct.blst_p2_affine = type { %struct.blst_fp2, %struct.blst_fp2 }
%struct.blst_fp2 = type { [2 x %struct.blst_fp] }
%struct.blst_p2 = type { %struct.blst_fp2, %struct.blst_fp2, %struct.blst_fp2 }
%"class.std::optional.43" = type { %"struct.std::_Optional_base.44" }
%"struct.std::_Optional_base.44" = type { %"struct.std::_Optional_payload.46" }
%"struct.std::_Optional_payload.46" = type { %"struct.std::_Optional_payload_base.base.48", [7 x i8] }
%"struct.std::_Optional_payload_base.base.48" = type <{ %"union.std::_Optional_payload_base<blst_fp2>::_Storage", i8 }>
%"union.std::_Optional_payload_base<blst_fp2>::_Storage" = type { %struct.blst_fp2 }
%"struct.std::_Optional_payload_base.47" = type <{ %"union.std::_Optional_payload_base<blst_fp2>::_Storage", i8, [7 x i8] }>

; Function Attrs: mustprogress nounwind uwtable
define linkonce_odr hidden noundef nonnull align 8 dereferenceable(96) ptr @_ZNKSt22_Optional_payload_baseI8blst_fp2E6_M_getEv(ptr noundef nonnull align 8 dereferenceable(97) %0) #0 comdat align 2 {
  %2 = alloca ptr, align 8
  store ptr %0, ptr %2, align 8, !tbaa !198
  %3 = load ptr, ptr %2, align 8
  %4 = getelementptr inbounds nuw %"struct.std::_Optional_payload_base.47", ptr %3, i32 0, i32 0
  ret ptr %4
}

; Function Attrs: mustprogress nounwind uwtable
define internal void @_ZN6evmone6crypto3bls12_GLOBAL__N_15storeEPhRK7blst_fp(ptr noundef %0, ptr noundef nonnull align 8 dereferenceable(48) %1) #0 personality ptr @__gxx_personality_v0 {
  %3 = alloca ptr, align 8
  %4 = alloca ptr, align 8
  store ptr %0, ptr %3, align 8, !tbaa !3
  store ptr %1, ptr %4, align 8, !tbaa !12
  %5 = load ptr, ptr %3, align 8, !tbaa !3
  call void @llvm.memset.p0.i64(ptr align 1 %5, i8 0, i64 16, i1 false)
  %6 = load ptr, ptr %3, align 8, !tbaa !3
  %7 = getelementptr inbounds i8, ptr %6, i64 16
  %8 = load ptr, ptr %4, align 8, !tbaa !12, !nonnull !13, !align !14
  invoke void @blst_bendian_from_fp(ptr noundef %7, ptr noundef %8)
          to label %9 unwind label %10

9:                                                ; preds = %2
  ret void

10:                                               ; preds = %2
  %11 = landingpad { ptr, i32 }
          catch ptr null
  %12 = extractvalue { ptr, i32 } %11, 0
  call void @__clang_call_terminate(ptr %12) #15
  unreachable
}

; Function Attrs: mustprogress nounwind uwtable
define linkonce_odr hidden noundef nonnull align 8 dereferenceable(96) ptr @_ZNKSt19_Optional_base_implI8blst_fp2St14_Optional_baseIS0_Lb1ELb1EEE6_M_getEv(ptr noundef nonnull align 1 dereferenceable(1) %0) #0 comdat align 2 {
  %2 = alloca ptr, align 8
  store ptr %0, ptr %2, align 8, !tbaa !204
  %3 = load ptr, ptr %2, align 8
  %4 = getelementptr inbounds nuw %"struct.std::_Optional_base.44", ptr %3, i32 0, i32 0
  %5 = call noundef nonnull align 8 dereferenceable(96) ptr @_ZNKSt22_Optional_payload_baseI8blst_fp2E6_M_getEv(ptr noundef nonnull align 8 dereferenceable(97) %4) #14
  ret ptr %5
}

; Function Attrs: mustprogress nounwind uwtable
define linkonce_odr hidden noundef zeroext i1 @_ZNKSt19_Optional_base_implI8blst_fp2St14_Optional_baseIS0_Lb1ELb1EEE13_M_is_engagedEv(ptr noundef nonnull align 1 dereferenceable(1) %0) #0 comdat align 2 {
  %2 = alloca ptr, align 8
  store ptr %0, ptr %2, align 8, !tbaa !204
  %3 = load ptr, ptr %2, align 8
  %4 = getelementptr inbounds nuw %"struct.std::_Optional_base.44", ptr %3, i32 0, i32 0
  %5 = getelementptr inbounds nuw %"struct.std::_Optional_payload_base.47", ptr %4, i32 0, i32 1
  %6 = load i8, ptr %5, align 8, !tbaa !200, !range !79, !noundef !13
  %7 = trunc i8 %6 to i1
  ret i1 %7
}

; Function Attrs: mustprogress nounwind uwtable
define internal void @_ZN6evmone6crypto3bls12_GLOBAL__N_15storeEPhRK8blst_fp2(ptr noundef %0, ptr noundef nonnull align 8 dereferenceable(96) %1) #0 {
  %3 = alloca ptr, align 8
  %4 = alloca ptr, align 8
  store ptr %0, ptr %3, align 8, !tbaa !3
  store ptr %1, ptr %4, align 8, !tbaa !12
  %5 = load ptr, ptr %3, align 8, !tbaa !3
  %6 = load ptr, ptr %4, align 8, !tbaa !12, !nonnull !13, !align !14
  %7 = getelementptr inbounds nuw %struct.blst_fp2, ptr %6, i32 0, i32 0
  %8 = getelementptr inbounds [2 x %struct.blst_fp], ptr %7, i64 0, i64 0
  call void @_ZN6evmone6crypto3bls12_GLOBAL__N_15storeEPhRK7blst_fp(ptr noundef %5, ptr noundef nonnull align 8 dereferenceable(48) %8) #14
  %9 = load ptr, ptr %3, align 8, !tbaa !3
  %10 = getelementptr inbounds i8, ptr %9, i64 64
  %11 = load ptr, ptr %4, align 8, !tbaa !12, !nonnull !13, !align !14
  %12 = getelementptr inbounds nuw %struct.blst_fp2, ptr %11, i32 0, i32 0
  %13 = getelementptr inbounds [2 x %struct.blst_fp], ptr %12, i64 0, i64 1
  call void @_ZN6evmone6crypto3bls12_GLOBAL__N_15storeEPhRK7blst_fp(ptr noundef %10, ptr noundef nonnull align 8 dereferenceable(48) %13) #14
  ret void
}

; Function Attrs: mustprogress nounwind uwtable
define linkonce_odr hidden noundef nonnull align 8 dereferenceable(96) ptr @_ZNKRSt8optionalI8blst_fp2EdeEv(ptr noundef nonnull align 8 dereferenceable(104) %0) #0 comdat align 2 {
  %2 = alloca ptr, align 8
  store ptr %0, ptr %2, align 8, !tbaa !73
  %3 = load ptr, ptr %2, align 8
  %4 = call noundef nonnull align 8 dereferenceable(96) ptr @_ZNKSt19_Optional_base_implI8blst_fp2St14_Optional_baseIS0_Lb1ELb1EEE6_M_getEv(ptr noundef nonnull align 1 dereferenceable(1) %3) #14
  ret ptr %4
}

; Function Attrs: mustprogress nounwind uwtable
define linkonce_odr hidden noundef zeroext i1 @_ZNKSt8optionalI8blst_fp2E9has_valueEv(ptr noundef nonnull align 8 dereferenceable(104) %0) #0 comdat align 2 {
  %2 = alloca ptr, align 8
  store ptr %0, ptr %2, align 8, !tbaa !73
  %3 = load ptr, ptr %2, align 8
  %4 = call noundef zeroext i1 @_ZNKSt19_Optional_base_implI8blst_fp2St14_Optional_baseIS0_Lb1ELb1EEE13_M_is_engagedEv(ptr noundef nonnull align 1 dereferenceable(1) %3) #14
  ret i1 %4
}

; Function Attrs: mustprogress nounwind uwtable
define hidden noundef zeroext i1 @_ZN6evmone6crypto3bls13map_fp2_to_g2EPhS2_PKh(ptr noundef %0, ptr noundef %1, ptr noundef %2) #0 personality ptr @__gxx_personality_v0 {
  %4 = alloca i1, align 1
  %5 = alloca ptr, align 8
  %6 = alloca ptr, align 8
  %7 = alloca ptr, align 8
  %8 = alloca %"class.std::optional.43", align 8
  %9 = alloca i32, align 4
  %10 = alloca %struct.blst_p2, align 8
  %11 = alloca %struct.blst_p2_affine, align 8
  store ptr %0, ptr %5, align 8, !tbaa !3
  store ptr %1, ptr %6, align 8, !tbaa !3
  store ptr %2, ptr %7, align 8, !tbaa !3
  call void @llvm.lifetime.start.p0(ptr %8) #14
  %12 = load ptr, ptr %7, align 8, !tbaa !3
  call void @_ZN6evmone6crypto3bls12_GLOBAL__N_112validate_fp2EPKh(ptr dead_on_unwind writable sret(%"class.std::optional.43") align 8 %8, ptr noundef %12) #14
  %13 = call noundef zeroext i1 @_ZNKSt8optionalI8blst_fp2E9has_valueEv(ptr noundef nonnull align 8 dereferenceable(104) %8) #14
  br i1 %13, label %15, label %14

14:                                               ; preds = %3
  store i1 false, ptr %4, align 1
  store i32 1, ptr %9, align 4
  br label %24

15:                                               ; preds = %3
  call void @llvm.lifetime.start.p0(ptr %10) #14
  %16 = invoke noundef nonnull align 8 dereferenceable(96) ptr @_ZNKRSt8optionalI8blst_fp2EdeEv(ptr noundef nonnull align 8 dereferenceable(104) %8)
          to label %17 unwind label %26

17:                                               ; preds = %15
  invoke void @blst_map_to_g2(ptr noundef %10, ptr noundef %16, ptr noundef null)
          to label %18 unwind label %26

18:                                               ; preds = %17
  call void @llvm.lifetime.start.p0(ptr %11) #14
  invoke void @blst_p2_to_affine(ptr noundef %11, ptr noundef %10)
          to label %19 unwind label %26

19:                                               ; preds = %18
  %20 = load ptr, ptr %5, align 8, !tbaa !3
  %21 = getelementptr inbounds nuw %struct.blst_p2_affine, ptr %11, i32 0, i32 0
  call void @_ZN6evmone6crypto3bls12_GLOBAL__N_15storeEPhRK8blst_fp2(ptr noundef %20, ptr noundef nonnull align 8 dereferenceable(96) %21) #14
  %22 = load ptr, ptr %6, align 8, !tbaa !3
  %23 = getelementptr inbounds nuw %struct.blst_p2_affine, ptr %11, i32 0, i32 1
  call void @_ZN6evmone6crypto3bls12_GLOBAL__N_15storeEPhRK8blst_fp2(ptr noundef %22, ptr noundef nonnull align 8 dereferenceable(96) %23) #14
  store i1 true, ptr %4, align 1
  store i32 1, ptr %9, align 4
  call void @llvm.lifetime.end.p0(ptr %11) #14
  call void @llvm.lifetime.end.p0(ptr %10) #14
  br label %24

24:                                               ; preds = %19, %14
  call void @llvm.lifetime.end.p0(ptr %8) #14
  %25 = load i1, ptr %4, align 1
  ret i1 %25

26:                                               ; preds = %18, %17, %15
  %27 = landingpad { ptr, i32 }
          catch ptr null
  %28 = extractvalue { ptr, i32 } %27, 0
  call void @__clang_call_terminate(ptr %28) #15
  unreachable
}