; Function Attrs: mustprogress nounwind uwtable
define hidden noundef zeroext i1 @_ZN6evmone6crypto3bls13map_fp2_to_g2EPhS2_PKh(ptr noundef %0, ptr noundef %1, ptr noundef %2) local_unnamed_addr #0 personality ptr @__gxx_personality_v0 {
  %4 = alloca %"class.std::optional.43", align 8
  %5 = alloca %struct.blst_p2, align 8
  %6 = alloca %struct.blst_p2_affine, align 8
  call void @llvm.lifetime.start.p0(ptr nonnull %4) #14
  call fastcc void @_ZN6evmone6crypto3bls12_GLOBAL__N_112validate_fp2EPKh(ptr dead_on_unwind noalias writable align 8 %4, ptr noundef %2) #14
  %7 = getelementptr inbounds nuw i8, ptr %4, i64 96
  %8 = load i8, ptr %7, align 8, !tbaa !57, !range !8, !noundef !9
  %9 = trunc nuw i8 %8 to i1
  br i1 %9, label %10, label %34

10:                                               ; preds = %3
  call void @llvm.lifetime.start.p0(ptr nonnull %5) #14
  invoke void @blst_map_to_g2(ptr noundef nonnull %5, ptr noundef nonnull %4, ptr noundef null)
          to label %11 unwind label %35

11:                                               ; preds = %10
  call void @llvm.lifetime.start.p0(ptr nonnull %6) #14
  invoke void @blst_p2_to_affine(ptr noundef nonnull %6, ptr noundef nonnull %5)
          to label %12 unwind label %35

12:                                               ; preds = %11
  call void @llvm.memset.p0.i64(ptr noundef nonnull align 1 dereferenceable(16) %0, i8 0, i64 16, i1 false)
  %13 = getelementptr inbounds nuw i8, ptr %0, i64 16
  invoke void @blst_bendian_from_fp(ptr noundef nonnull %13, ptr noundef nonnull align 8 dereferenceable(96) %6)
          to label %_ZN6evmone6crypto3bls12_GLOBAL__N_15storeEPhRK7blst_fp.exit.i unwind label %14

14:                                               ; preds = %12
  %15 = landingpad { ptr, i32 }
          catch ptr null
  %16 = extractvalue { ptr, i32 } %15, 0
  call void @__clang_call_terminate(ptr %16) #15
  unreachable

_ZN6evmone6crypto3bls12_GLOBAL__N_15storeEPhRK7blst_fp.exit.i: ; preds = %12
  %17 = getelementptr inbounds nuw i8, ptr %0, i64 64
  %18 = getelementptr inbounds nuw i8, ptr %6, i64 48
  call void @llvm.memset.p0.i64(ptr noundef nonnull align 1 dereferenceable(16) %17, i8 0, i64 16, i1 false)
  %19 = getelementptr inbounds nuw i8, ptr %0, i64 80
  invoke void @blst_bendian_from_fp(ptr noundef nonnull %19, ptr noundef nonnull align 8 dereferenceable(48) %18)
          to label %_ZN6evmone6crypto3bls12_GLOBAL__N_15storeEPhRK8blst_fp2.exit unwind label %20

20:                                               ; preds = %_ZN6evmone6crypto3bls12_GLOBAL__N_15storeEPhRK7blst_fp.exit.i
  %21 = landingpad { ptr, i32 }
          catch ptr null
  %22 = extractvalue { ptr, i32 } %21, 0
  call void @__clang_call_terminate(ptr %22) #15
  unreachable

_ZN6evmone6crypto3bls12_GLOBAL__N_15storeEPhRK8blst_fp2.exit: ; preds = %_ZN6evmone6crypto3bls12_GLOBAL__N_15storeEPhRK7blst_fp.exit.i
  %23 = getelementptr inbounds nuw i8, ptr %6, i64 96
  call void @llvm.memset.p0.i64(ptr noundef nonnull align 1 dereferenceable(16) %1, i8 0, i64 16, i1 false)
  %24 = getelementptr inbounds nuw i8, ptr %1, i64 16
  invoke void @blst_bendian_from_fp(ptr noundef nonnull %24, ptr noundef nonnull align 8 dereferenceable(96) %23)
          to label %_ZN6evmone6crypto3bls12_GLOBAL__N_15storeEPhRK7blst_fp.exit.i4 unwind label %25

25:                                               ; preds = %_ZN6evmone6crypto3bls12_GLOBAL__N_15storeEPhRK8blst_fp2.exit
  %26 = landingpad { ptr, i32 }
          catch ptr null
  %27 = extractvalue { ptr, i32 } %26, 0
  call void @__clang_call_terminate(ptr %27) #15
  unreachable

_ZN6evmone6crypto3bls12_GLOBAL__N_15storeEPhRK7blst_fp.exit.i4: ; preds = %_ZN6evmone6crypto3bls12_GLOBAL__N_15storeEPhRK8blst_fp2.exit
  %28 = getelementptr inbounds nuw i8, ptr %1, i64 64
  %29 = getelementptr inbounds nuw i8, ptr %6, i64 144
  call void @llvm.memset.p0.i64(ptr noundef nonnull align 1 dereferenceable(16) %28, i8 0, i64 16, i1 false)
  %30 = getelementptr inbounds nuw i8, ptr %1, i64 80
  invoke void @blst_bendian_from_fp(ptr noundef nonnull %30, ptr noundef nonnull align 8 dereferenceable(48) %29)
          to label %_ZN6evmone6crypto3bls12_GLOBAL__N_15storeEPhRK8blst_fp2.exit5 unwind label %31

31:                                               ; preds = %_ZN6evmone6crypto3bls12_GLOBAL__N_15storeEPhRK7blst_fp.exit.i4
  %32 = landingpad { ptr, i32 }
          catch ptr null
  %33 = extractvalue { ptr, i32 } %32, 0
  call void @__clang_call_terminate(ptr %33) #15
  unreachable

_ZN6evmone6crypto3bls12_GLOBAL__N_15storeEPhRK8blst_fp2.exit5: ; preds = %_ZN6evmone6crypto3bls12_GLOBAL__N_15storeEPhRK7blst_fp.exit.i4
  call void @llvm.lifetime.end.p0(ptr nonnull %6) #14
  call void @llvm.lifetime.end.p0(ptr nonnull %5) #14
  br label %34

34:                                               ; preds = %3, %_ZN6evmone6crypto3bls12_GLOBAL__N_15storeEPhRK8blst_fp2.exit5
  call void @llvm.lifetime.end.p0(ptr nonnull %4) #14
  ret i1 %9

35:                                               ; preds = %11, %10
  %36 = landingpad { ptr, i32 }
          catch ptr null
  %37 = extractvalue { ptr, i32 } %36, 0
  call void @__clang_call_terminate(ptr %37) #15
  unreachable
}